; Function Attrs: nounwind uwtable
define internal void @heapctypewithweakref_dealloc(ptr noundef %0) #0 {
  %2 = getelementptr i8, ptr %0, i64 8
  %.val = load ptr, ptr %2, align 8, !tbaa !9
  %3 = getelementptr inbounds nuw i8, ptr %0, i64 16
  %4 = load ptr, ptr %3, align 8, !tbaa !54
  %.not = icmp eq ptr %4, null
  br i1 %.not, label %Py_XDECREF.exit, label %5

5:                                                ; preds = %1
  tail call void @PyObject_ClearWeakRefs(ptr noundef nonnull %0) #8
  %.pr = load ptr, ptr %3, align 8, !tbaa !54
  %.not.i6 = icmp eq ptr %.pr, null
  br i1 %.not.i6, label %Py_XDECREF.exit, label %6

6:                                                ; preds = %5
  %7 = load i32, ptr %.pr, align 8, !tbaa !8
  %.not.i.i = icmp sgt i32 %7, -1
  br i1 %.not.i.i, label %8, label %Py_XDECREF.exit

8:                                                ; preds = %6
  %9 = add nsw i32 %7, -1
  store i32 %9, ptr %.pr, align 8, !tbaa !8
  %10 = icmp eq i32 %9, 0
  br i1 %10, label %11, label %Py_XDECREF.exit

11:                                               ; preds = %8
  tail call void @_Py_Dealloc(ptr noundef nonnull %.pr) #8
  br label %Py_XDECREF.exit

Py_XDECREF.exit:                                  ; preds = %1, %5, %6, %8, %11
  tail call void @PyObject_Free(ptr noundef nonnull %0) #8
  %12 = load i32, ptr %.val, align 8, !tbaa !8
  %.not.i = icmp sgt i32 %12, -1
  br i1 %.not.i, label %13, label %Py_DECREF.exit

13:                                               ; preds = %Py_XDECREF.exit
  %14 = add nsw i32 %12, -1
  store i32 %14, ptr %.val, align 8, !tbaa !8
  %15 = icmp eq i32 %14, 0
  br i1 %15, label %16, label %Py_DECREF.exit

16:                                               ; preds = %13
  tail call void @_Py_Dealloc(ptr noundef nonnull %.val) #8
  br label %Py_DECREF.exit

Py_DECREF.exit:                                   ; preds = %Py_XDECREF.exit, %13, %16
  ret void
}